target datalayout = "e-m:e-p270:32:32-p271:32:32-p272:64:64-i64:64-i128:128-f80:128-n8:16:32:64-S128"
target triple = "x86_64-pc-linux-gnu"

@PqRecvLength = internal global i32 0, align 4
@PqRecvPointer = internal global i32 0, align 4
@PqRecvBuffer = internal global [8192 x i8] zeroinitializer, align 16

; Function Attrs: nounwind uwtable
define dso_local i32 @pq_getbytes(ptr noundef %0, i64 noundef %1) #0 {
  %3 = alloca i32, align 4
  %4 = alloca ptr, align 8
  %5 = alloca i64, align 8
  %6 = alloca i64, align 8
  %7 = alloca i32, align 4
  store ptr %0, ptr %4, align 8
  store i64 %1, ptr %5, align 8
  call void @llvm.lifetime.start.p0(i64 8, ptr %6) #14
  br label %8

8:                                                ; preds = %31, %2
  %9 = load i64, ptr %5, align 8
  %10 = icmp ugt i64 %9, 0
  br i1 %10, label %11, label %48

11:                                               ; preds = %8
  br label %12

12:                                               ; preds = %20, %11
  %13 = load i32, ptr @PqRecvPointer, align 4
  %14 = load i32, ptr @PqRecvLength, align 4
  %15 = icmp sge i32 %13, %14
  br i1 %15, label %16, label %21

16:                                               ; preds = %12
  %17 = call i32 @pq_recvbuf()
  %18 = icmp ne i32 %17, 0
  br i1 %18, label %19, label %20

19:                                               ; preds = %16
  store i32 -1, ptr %3, align 4
  store i32 1, ptr %7, align 4
  br label %49

20:                                               ; preds = %16
  br label %12, !llvm.loop !13

21:                                               ; preds = %12
  %22 = load i32, ptr @PqRecvLength, align 4
  %23 = load i32, ptr @PqRecvPointer, align 4
  %24 = sub i32 %22, %23
  %25 = sext i32 %24 to i64
  store i64 %25, ptr %6, align 8
  %26 = load i64, ptr %6, align 8
  %27 = load i64, ptr %5, align 8
  %28 = icmp ugt i64 %26, %27
  br i1 %28, label %29, label %31

29:                                               ; preds = %21
  %30 = load i64, ptr %5, align 8
  store i64 %30, ptr %6, align 8
  br label %31

31:                                               ; preds = %29, %21
  %32 = load ptr, ptr %4, align 8
  %33 = load i32, ptr @PqRecvPointer, align 4
  %34 = sext i32 %33 to i64
  %35 = getelementptr inbounds i8, ptr @PqRecvBuffer, i64 %34
  %36 = load i64, ptr %6, align 8
  call void @llvm.memcpy.p0.p0.i64(ptr align 1 %32, ptr align 1 %35, i64 %36, i1 false)
  %37 = load i64, ptr %6, align 8
  %38 = load i32, ptr @PqRecvPointer, align 4
  %39 = sext i32 %38 to i64
  %40 = add i64 %39, %37
  %41 = trunc i64 %40 to i32
  store i32 %41, ptr @PqRecvPointer, align 4
  %42 = load i64, ptr %6, align 8
  %43 = load ptr, ptr %4, align 8
  %44 = getelementptr inbounds nuw i8, ptr %43, i64 %42
  store ptr %44, ptr %4, align 8
  %45 = load i64, ptr %6, align 8
  %46 = load i64, ptr %5, align 8
  %47 = sub i64 %46, %45
  store i64 %47, ptr %5, align 8
  br label %8, !llvm.loop !14

48:                                               ; preds = %8
  store i32 0, ptr %3, align 4
  store i32 1, ptr %7, align 4
  br label %49

49:                                               ; preds = %48, %19
  call void @llvm.lifetime.end.p0(i64 8, ptr %6) #14
  %50 = load i32, ptr %3, align 4
  ret i32 %50
}