; Function Attrs: nounwind uwtable
define dso_local range(i32 -1, 1) i32 @pq_getbytes(ptr noundef writeonly captures(none) %0, i64 noundef %1) local_unnamed_addr #0 {
  %.not23 = icmp eq i64 %1, 0
  br i1 %.not23, label %.loopexit, label %.preheader

.preheader:                                       ; preds = %2, %8
  %.01125 = phi i64 [ %16, %8 ], [ %1, %2 ]
  %.01224 = phi ptr [ %15, %8 ], [ %0, %2 ]
  br label %3

3:                                                ; preds = %.preheader, %6
  %4 = load i32, ptr @PqRecvPointer, align 4
  %5 = load i32, ptr @PqRecvLength, align 4
  %.not17 = icmp slt i32 %4, %5
  br i1 %.not17, label %8, label %6

6:                                                ; preds = %3
  %7 = tail call fastcc i32 @pq_recvbuf()
  %.not18 = icmp eq i32 %7, 0
  br i1 %.not18, label %3, label %.loopexit, !llvm.loop !8

8:                                                ; preds = %3
  %9 = sub i32 %5, %4
  %10 = sext i32 %9 to i64
  %spec.select = tail call i64 @llvm.umin.i64(i64 %.01125, i64 %10)
  %11 = sext i32 %4 to i64
  %12 = getelementptr inbounds i8, ptr @PqRecvBuffer, i64 %11
  tail call void @llvm.memcpy.p0.p0.i64(ptr align 1 %.01224, ptr nonnull align 1 %12, i64 %spec.select, i1 false)
  %13 = trunc i64 %spec.select to i32
  %14 = add i32 %4, %13
  store i32 %14, ptr @PqRecvPointer, align 4
  %15 = getelementptr inbounds nuw i8, ptr %.01224, i64 %spec.select
  %16 = sub i64 %.01125, %spec.select
  %.not = icmp eq i64 %16, 0
  br i1 %.not, label %.loopexit, label %.preheader, !llvm.loop !9

.loopexit:                                        ; preds = %8, %6, %2
  %.013 = phi i32 [ 0, %2 ], [ -1, %6 ], [ 0, %8 ]
  ret i32 %.013
}